; Function Attrs: nounwind sspstrong uwtable
define internal range(i64 1, 8589934592) i64 @rb_file_s_umask(i32 noundef %0, ptr noundef readonly captures(none) %1, i64 %2) #0 {
  switch i32 %0, label %12 [
    i32 0, label %4
    i32 1, label %7
  ]

4:                                                ; preds = %3
  %5 = tail call i32 @umask(i32 noundef 0) #22
  %6 = tail call i32 @umask(i32 noundef %5) #22
  br label %13

7:                                                ; preds = %3
  %8 = load i64, ptr %1, align 8, !tbaa !12
  %9 = tail call i64 @rb_num2uint(i64 noundef %8) #22
  %10 = trunc i64 %9 to i32
  %11 = tail call i32 @umask(i32 noundef %10) #22
  br label %13

12:                                               ; preds = %3
  tail call void @rb_error_arity(i32 noundef %0, i32 noundef 0, i32 noundef 1) #24
  unreachable

13:                                               ; preds = %7, %4
  %.0 = phi i32 [ %11, %7 ], [ %5, %4 ]
  %14 = zext i32 %.0 to i64
  %15 = shl nuw nsw i64 %14, 1
  %16 = or disjoint i64 %15, 1
  ret i64 %16
}